target datalayout = "e-m:e-p270:32:32-p271:32:32-p272:64:64-i64:64-i128:128-f80:128-n8:16:32:64-S128"
target triple = "x86_64-pc-linux-gnu"

%struct.H5O_link_t = type { i32, i8, i64, i32, ptr, %union.anon }
%union.anon = type { %struct.H5O_link_ud_t }
%struct.H5O_link_ud_t = type { ptr, i64 }
%struct.H5O_link_hard_t = type { i64 }
%struct.H5O_link_soft_t = type { ptr }

; Function Attrs: nounwind uwtable
define internal i32 @H5O__link_encode(ptr noundef %0, i1 noundef zeroext %1, i64 noundef %2, ptr noundef %3, ptr noundef %4) #0 {
  %6 = alloca ptr, align 8
  %7 = alloca i8, align 1
  %8 = alloca i64, align 8
  %9 = alloca ptr, align 8
  %10 = alloca ptr, align 8
  %11 = alloca ptr, align 8
  %12 = alloca i64, align 8
  %13 = alloca i8, align 1
  %14 = alloca i64, align 8
  %15 = alloca i64, align 8
  %16 = alloca ptr, align 8
  %17 = alloca i64, align 8
  %18 = alloca i64, align 8
  %19 = alloca ptr, align 8
  store ptr %0, ptr %6, align 8
  %20 = zext i1 %1 to i8
  store i8 %20, ptr %7, align 1
  store i64 %2, ptr %8, align 8
  store ptr %3, ptr %9, align 8
  store ptr %4, ptr %10, align 8
  %21 = load ptr, ptr %10, align 8
  store ptr %21, ptr %11, align 8
  %22 = load ptr, ptr %11, align 8
  %23 = getelementptr inbounds %struct.H5O_link_t, ptr %22, i32 0, i32 4
  %24 = load ptr, ptr %23, align 8
  %25 = call i64 @strlen(ptr noundef %24) #7
  store i64 %25, ptr %12, align 8
  %26 = load ptr, ptr %9, align 8
  %27 = getelementptr inbounds i8, ptr %26, i32 1
  store ptr %27, ptr %9, align 8
  store i8 1, ptr %26, align 1
  %28 = load i64, ptr %12, align 8
  %29 = icmp ugt i64 %28, 4294967295
  br i1 %29, label %30, label %31

30:                                               ; preds = %5
  store i8 3, ptr %13, align 1
  br label %42

31:                                               ; preds = %5
  %32 = load i64, ptr %12, align 8
  %33 = icmp ugt i64 %32, 65535
  br i1 %33, label %34, label %35

34:                                               ; preds = %31
  store i8 2, ptr %13, align 1
  br label %41

35:                                               ; preds = %31
  %36 = load i64, ptr %12, align 8
  %37 = icmp ugt i64 %36, 255
  br i1 %37, label %38, label %39

38:                                               ; preds = %35
  store i8 1, ptr %13, align 1
  br label %40

39:                                               ; preds = %35
  store i8 0, ptr %13, align 1
  br label %40

40:                                               ; preds = %39, %38
  br label %41

41:                                               ; preds = %40, %34
  br label %42

42:                                               ; preds = %41, %30
  %43 = load i8, ptr %13, align 1
  %44 = zext i8 %43 to i32
  %45 = load ptr, ptr %11, align 8
  %46 = getelementptr inbounds %struct.H5O_link_t, ptr %45, i32 0, i32 1
  %47 = load i8, ptr %46, align 4
  %48 = trunc i8 %47 to i1
  %49 = select i1 %48, i32 4, i32 0
  %50 = or i32 %44, %49
  %51 = trunc i32 %50 to i8
  store i8 %51, ptr %13, align 1
  %52 = load i8, ptr %13, align 1
  %53 = zext i8 %52 to i32
  %54 = load ptr, ptr %11, align 8
  %55 = getelementptr inbounds %struct.H5O_link_t, ptr %54, i32 0, i32 0
  %56 = load i32, ptr %55, align 8
  %57 = icmp ne i32 %56, 0
  %58 = select i1 %57, i32 8, i32 0
  %59 = or i32 %53, %58
  %60 = trunc i32 %59 to i8
  store i8 %60, ptr %13, align 1
  %61 = load i8, ptr %13, align 1
  %62 = zext i8 %61 to i32
  %63 = load ptr, ptr %11, align 8
  %64 = getelementptr inbounds %struct.H5O_link_t, ptr %63, i32 0, i32 3
  %65 = load i32, ptr %64, align 8
  %66 = icmp ne i32 %65, 0
  %67 = select i1 %66, i32 16, i32 0
  %68 = or i32 %62, %67
  %69 = trunc i32 %68 to i8
  store i8 %69, ptr %13, align 1
  %70 = load i8, ptr %13, align 1
  %71 = load ptr, ptr %9, align 8
  %72 = getelementptr inbounds i8, ptr %71, i32 1
  store ptr %72, ptr %9, align 8
  store i8 %70, ptr %71, align 1
  %73 = load i8, ptr %13, align 1
  %74 = zext i8 %73 to i32
  %75 = and i32 %74, 8
  %76 = icmp ne i32 %75, 0
  br i1 %76, label %77, label %84

77:                                               ; preds = %42
  %78 = load ptr, ptr %11, align 8
  %79 = getelementptr inbounds %struct.H5O_link_t, ptr %78, i32 0, i32 0
  %80 = load i32, ptr %79, align 8
  %81 = trunc i32 %80 to i8
  %82 = load ptr, ptr %9, align 8
  %83 = getelementptr inbounds i8, ptr %82, i32 1
  store ptr %83, ptr %9, align 8
  store i8 %81, ptr %82, align 1
  br label %84

84:                                               ; preds = %77, %42
  %85 = load ptr, ptr %11, align 8
  %86 = getelementptr inbounds %struct.H5O_link_t, ptr %85, i32 0, i32 1
  %87 = load i8, ptr %86, align 4
  %88 = trunc i8 %87 to i1
  br i1 %88, label %89, label %129

89:                                               ; preds = %84
  br label %90

90:                                               ; preds = %89
  %91 = load ptr, ptr %11, align 8
  %92 = getelementptr inbounds %struct.H5O_link_t, ptr %91, i32 0, i32 2
  %93 = load i64, ptr %92, align 8
  store i64 %93, ptr %14, align 8
  %94 = load ptr, ptr %9, align 8
  store ptr %94, ptr %16, align 8
  store i64 0, ptr %15, align 8
  br label %95

95:                                               ; preds = %104, %90
  %96 = load i64, ptr %15, align 8
  %97 = icmp ult i64 %96, 8
  br i1 %97, label %98, label %109

98:                                               ; preds = %95
  %99 = load i64, ptr %14, align 8
  %100 = and i64 %99, 255
  %101 = trunc i64 %100 to i8
  %102 = load ptr, ptr %16, align 8
  %103 = getelementptr inbounds i8, ptr %102, i32 1
  store ptr %103, ptr %16, align 8
  store i8 %101, ptr %102, align 1
  br label %104

104:                                              ; preds = %98
  %105 = load i64, ptr %15, align 8
  %106 = add i64 %105, 1
  store i64 %106, ptr %15, align 8
  %107 = load i64, ptr %14, align 8
  %108 = ashr i64 %107, 8
  store i64 %108, ptr %14, align 8
  br label %95

109:                                              ; preds = %95
  br label %110

110:                                              ; preds = %122, %109
  %111 = load i64, ptr %15, align 8
  %112 = icmp ult i64 %111, 8
  br i1 %112, label %113, label %125

113:                                              ; preds = %110
  %114 = load ptr, ptr %11, align 8
  %115 = getelementptr inbounds %struct.H5O_link_t, ptr %114, i32 0, i32 2
  %116 = load i64, ptr %115, align 8
  %117 = icmp slt i64 %116, 0
  %118 = select i1 %117, i32 255, i32 0
  %119 = trunc i32 %118 to i8
  %120 = load ptr, ptr %16, align 8
  %121 = getelementptr inbounds i8, ptr %120, i32 1
  store ptr %121, ptr %16, align 8
  store i8 %119, ptr %120, align 1
  br label %122

122:                                              ; preds = %113
  %123 = load i64, ptr %15, align 8
  %124 = add i64 %123, 1
  store i64 %124, ptr %15, align 8
  br label %110

125:                                              ; preds = %110
  %126 = load ptr, ptr %9, align 8
  %127 = getelementptr inbounds i8, ptr %126, i64 8
  store ptr %127, ptr %9, align 8
  br label %128

128:                                              ; preds = %125
  br label %129

129:                                              ; preds = %128, %84
  %130 = load i8, ptr %13, align 1
  %131 = zext i8 %130 to i32
  %132 = and i32 %131, 16
  %133 = icmp ne i32 %132, 0
  br i1 %133, label %134, label %141

134:                                              ; preds = %129
  %135 = load ptr, ptr %11, align 8
  %136 = getelementptr inbounds %struct.H5O_link_t, ptr %135, i32 0, i32 3
  %137 = load i32, ptr %136, align 8
  %138 = trunc i32 %137 to i8
  %139 = load ptr, ptr %9, align 8
  %140 = getelementptr inbounds i8, ptr %139, i32 1
  store ptr %140, ptr %9, align 8
  store i8 %138, ptr %139, align 1
  br label %141

141:                                              ; preds = %134, %129
  %142 = load i8, ptr %13, align 1
  %143 = zext i8 %142 to i32
  %144 = and i32 %143, 3
  switch i32 %144, label %230 [
    i32 0, label %145
    i32 1, label %150
    i32 2, label %168
    i32 3, label %198
  ]

145:                                              ; preds = %141
  %146 = load i64, ptr %12, align 8
  %147 = trunc i64 %146 to i8
  %148 = load ptr, ptr %9, align 8
  %149 = getelementptr inbounds i8, ptr %148, i32 1
  store ptr %149, ptr %9, align 8
  store i8 %147, ptr %148, align 1
  br label %231

150:                                              ; preds = %141
  br label %151

151:                                              ; preds = %150
  %152 = load i64, ptr %12, align 8
  %153 = trunc i64 %152 to i32
  %154 = and i32 %153, 255
  %155 = trunc i32 %154 to i8
  %156 = load ptr, ptr %9, align 8
  store i8 %155, ptr %156, align 1
  %157 = load ptr, ptr %9, align 8
  %158 = getelementptr inbounds i8, ptr %157, i32 1
  store ptr %158, ptr %9, align 8
  %159 = load i64, ptr %12, align 8
  %160 = trunc i64 %159 to i32
  %161 = lshr i32 %160, 8
  %162 = and i32 %161, 255
  %163 = trunc i32 %162 to i8
  %164 = load ptr, ptr %9, align 8
  store i8 %163, ptr %164, align 1
  %165 = load ptr, ptr %9, align 8
  %166 = getelementptr inbounds i8, ptr %165, i32 1
  store ptr %166, ptr %9, align 8
  br label %167

167:                                              ; preds = %151
  br label %231

168:                                              ; preds = %141
  br label %169

169:                                              ; preds = %168
  %170 = load i64, ptr %12, align 8
  %171 = and i64 %170, 255
  %172 = trunc i64 %171 to i8
  %173 = load ptr, ptr %9, align 8
  store i8 %172, ptr %173, align 1
  %174 = load ptr, ptr %9, align 8
  %175 = getelementptr inbounds i8, ptr %174, i32 1
  store ptr %175, ptr %9, align 8
  %176 = load i64, ptr %12, align 8
  %177 = lshr i64 %176, 8
  %178 = and i64 %177, 255
  %179 = trunc i64 %178 to i8
  %180 = load ptr, ptr %9, align 8
  store i8 %179, ptr %180, align 1
  %181 = load ptr, ptr %9, align 8
  %182 = getelementptr inbounds i8, ptr %181, i32 1
  store ptr %182, ptr %9, align 8
  %183 = load i64, ptr %12, align 8
  %184 = lshr i64 %183, 16
  %185 = and i64 %184, 255
  %186 = trunc i64 %185 to i8
  %187 = load ptr, ptr %9, align 8
  store i8 %186, ptr %187, align 1
  %188 = load ptr, ptr %9, align 8
  %189 = getelementptr inbounds i8, ptr %188, i32 1
  store ptr %189, ptr %9, align 8
  %190 = load i64, ptr %12, align 8
  %191 = lshr i64 %190, 24
  %192 = and i64 %191, 255
  %193 = trunc i64 %192 to i8
  %194 = load ptr, ptr %9, align 8
  store i8 %193, ptr %194, align 1
  %195 = load ptr, ptr %9, align 8
  %196 = getelementptr inbounds i8, ptr %195, i32 1
  store ptr %196, ptr %9, align 8
  br label %197

197:                                              ; preds = %169
  br label %231

198:                                              ; preds = %141
  br label %199

199:                                              ; preds = %198
  %200 = load i64, ptr %12, align 8
  store i64 %200, ptr %17, align 8
  %201 = load ptr, ptr %9, align 8
  store ptr %201, ptr %19, align 8
  store i64 0, ptr %18, align 8
  br label %202

202:                                              ; preds = %211, %199
  %203 = load i64, ptr %18, align 8
  %204 = icmp ult i64 %203, 8
  br i1 %204, label %205, label %216

205:                                              ; preds = %202
  %206 = load i64, ptr %17, align 8
  %207 = and i64 %206, 255
  %208 = trunc i64 %207 to i8
  %209 = load ptr, ptr %19, align 8
  %210 = getelementptr inbounds i8, ptr %209, i32 1
  store ptr %210, ptr %19, align 8
  store i8 %208, ptr %209, align 1
  br label %211

211:                                              ; preds = %205
  %212 = load i64, ptr %18, align 8
  %213 = add i64 %212, 1
  store i64 %213, ptr %18, align 8
  %214 = load i64, ptr %17, align 8
  %215 = lshr i64 %214, 8
  store i64 %215, ptr %17, align 8
  br label %202

216:                                              ; preds = %202
  br label %217

217:                                              ; preds = %223, %216
  %218 = load i64, ptr %18, align 8
  %219 = icmp ult i64 %218, 8
  br i1 %219, label %220, label %226

220:                                              ; preds = %217
  %221 = load ptr, ptr %19, align 8
  %222 = getelementptr inbounds i8, ptr %221, i32 1
  store ptr %222, ptr %19, align 8
  store i8 0, ptr %221, align 1
  br label %223

223:                                              ; preds = %220
  %224 = load i64, ptr %18, align 8
  %225 = add i64 %224, 1
  store i64 %225, ptr %18, align 8
  br label %217

226:                                              ; preds = %217
  %227 = load ptr, ptr %9, align 8
  %228 = getelementptr inbounds i8, ptr %227, i64 8
  store ptr %228, ptr %9, align 8
  br label %229

229:                                              ; preds = %226
  br label %231

230:                                              ; preds = %141
  br label %231

231:                                              ; preds = %230, %229, %197, %167, %145
  %232 = load ptr, ptr %9, align 8
  %233 = load ptr, ptr %11, align 8
  %234 = getelementptr inbounds %struct.H5O_link_t, ptr %233, i32 0, i32 4
  %235 = load ptr, ptr %234, align 8
  %236 = load i64, ptr %12, align 8
  call void @llvm.memcpy.p0.p0.i64(ptr align 1 %232, ptr align 1 %235, i64 %236, i1 false)
  %237 = load i64, ptr %12, align 8
  %238 = load ptr, ptr %9, align 8
  %239 = getelementptr inbounds i8, ptr %238, i64 %237
  store ptr %239, ptr %9, align 8
  %240 = load ptr, ptr %11, align 8
  %241 = getelementptr inbounds %struct.H5O_link_t, ptr %240, i32 0, i32 0
  %242 = load i32, ptr %241, align 8
  switch i32 %242, label %284 [
    i32 0, label %243
    i32 1, label %249
    i32 64, label %283
    i32 -1, label %283
    i32 255, label %283
  ]

243:                                              ; preds = %231
  %244 = load ptr, ptr %6, align 8
  %245 = load ptr, ptr %11, align 8
  %246 = getelementptr inbounds %struct.H5O_link_t, ptr %245, i32 0, i32 5
  %247 = getelementptr inbounds %struct.H5O_link_hard_t, ptr %246, i32 0, i32 0
  %248 = load i64, ptr %247, align 8
  call void @H5F_addr_encode(ptr noundef %244, ptr noundef %9, i64 noundef %248)
  br label %321

249:                                              ; preds = %231
  %250 = load ptr, ptr %11, align 8
  %251 = getelementptr inbounds %struct.H5O_link_t, ptr %250, i32 0, i32 5
  %252 = getelementptr inbounds %struct.H5O_link_soft_t, ptr %251, i32 0, i32 0
  %253 = load ptr, ptr %252, align 8
  %254 = call i64 @strlen(ptr noundef %253) #7
  %255 = trunc i64 %254 to i16
  %256 = zext i16 %255 to i64
  store i64 %256, ptr %12, align 8
  br label %257

257:                                              ; preds = %249
  %258 = load i64, ptr %12, align 8
  %259 = trunc i64 %258 to i32
  %260 = and i32 %259, 255
  %261 = trunc i32 %260 to i8
  %262 = load ptr, ptr %9, align 8
  store i8 %261, ptr %262, align 1
  %263 = load ptr, ptr %9, align 8
  %264 = getelementptr inbounds i8, ptr %263, i32 1
  store ptr %264, ptr %9, align 8
  %265 = load i64, ptr %12, align 8
  %266 = trunc i64 %265 to i32
  %267 = lshr i32 %266, 8
  %268 = and i32 %267, 255
  %269 = trunc i32 %268 to i8
  %270 = load ptr, ptr %9, align 8
  store i8 %269, ptr %270, align 1
  %271 = load ptr, ptr %9, align 8
  %272 = getelementptr inbounds i8, ptr %271, i32 1
  store ptr %272, ptr %9, align 8
  br label %273

273:                                              ; preds = %257
  %274 = load ptr, ptr %9, align 8
  %275 = load ptr, ptr %11, align 8
  %276 = getelementptr inbounds %struct.H5O_link_t, ptr %275, i32 0, i32 5
  %277 = getelementptr inbounds %struct.H5O_link_soft_t, ptr %276, i32 0, i32 0
  %278 = load ptr, ptr %277, align 8
  %279 = load i64, ptr %12, align 8
  call void @llvm.memcpy.p0.p0.i64(ptr align 1 %274, ptr align 1 %278, i64 %279, i1 false)
  %280 = load i64, ptr %12, align 8
  %281 = load ptr, ptr %9, align 8
  %282 = getelementptr inbounds i8, ptr %281, i64 %280
  store ptr %282, ptr %9, align 8
  br label %321

283:                                              ; preds = %231, %231, %231
  br label %284

284:                                              ; preds = %283, %231
  %285 = load ptr, ptr %11, align 8
  %286 = getelementptr inbounds %struct.H5O_link_t, ptr %285, i32 0, i32 5
  %287 = getelementptr inbounds %struct.H5O_link_ud_t, ptr %286, i32 0, i32 1
  %288 = load i64, ptr %287, align 8
  %289 = trunc i64 %288 to i16
  %290 = zext i16 %289 to i64
  store i64 %290, ptr %12, align 8
  br label %291

291:                                              ; preds = %284
  %292 = load i64, ptr %12, align 8
  %293 = trunc i64 %292 to i32
  %294 = and i32 %293, 255
  %295 = trunc i32 %294 to i8
  %296 = load ptr, ptr %9, align 8
  store i8 %295, ptr %296, align 1
  %297 = load ptr, ptr %9, align 8
  %298 = getelementptr inbounds i8, ptr %297, i32 1
  store ptr %298, ptr %9, align 8
  %299 = load i64, ptr %12, align 8
  %300 = trunc i64 %299 to i32
  %301 = lshr i32 %300, 8
  %302 = and i32 %301, 255
  %303 = trunc i32 %302 to i8
  %304 = load ptr, ptr %9, align 8
  store i8 %303, ptr %304, align 1
  %305 = load ptr, ptr %9, align 8
  %306 = getelementptr inbounds i8, ptr %305, i32 1
  store ptr %306, ptr %9, align 8
  br label %307

307:                                              ; preds = %291
  %308 = load i64, ptr %12, align 8
  %309 = icmp ugt i64 %308, 0
  br i1 %309, label %310, label %320

310:                                              ; preds = %307
  %311 = load ptr, ptr %9, align 8
  %312 = load ptr, ptr %11, align 8
  %313 = getelementptr inbounds %struct.H5O_link_t, ptr %312, i32 0, i32 5
  %314 = getelementptr inbounds %struct.H5O_link_ud_t, ptr %313, i32 0, i32 0
  %315 = load ptr, ptr %314, align 8
  %316 = load i64, ptr %12, align 8
  call void @llvm.memcpy.p0.p0.i64(ptr align 1 %311, ptr align 1 %315, i64 %316, i1 false)
  %317 = load i64, ptr %12, align 8
  %318 = load ptr, ptr %9, align 8
  %319 = getelementptr inbounds i8, ptr %318, i64 %317
  store ptr %319, ptr %9, align 8
  br label %320

320:                                              ; preds = %310, %307
  br label %321

321:                                              ; preds = %320, %273, %243
  ret i32 0
}