; Function Attrs: nounwind uwtable
define internal noundef i32 @H5O__link_encode(ptr noundef %0, i1 zeroext %1, i64 %2, ptr noundef %3, ptr nocapture noundef readonly %4) #0 {
  %6 = alloca ptr, align 8
  %7 = getelementptr inbounds i8, ptr %4, i64 24
  %8 = load ptr, ptr %7, align 8
  %9 = tail call i64 @strlen(ptr noundef nonnull dereferenceable(1) %8) #9
  %10 = getelementptr inbounds i8, ptr %3, i64 1
  store i8 1, ptr %3, align 1
  %11 = icmp ugt i64 %9, 4294967295
  br i1 %11, label %16, label %12

12:                                               ; preds = %5
  %13 = icmp ugt i64 %9, 65535
  br i1 %13, label %16, label %14

14:                                               ; preds = %12
  %15 = icmp ugt i64 %9, 255
  %. = zext i1 %15 to i8
  br label %16

16:                                               ; preds = %14, %12, %5
  %.070 = phi i8 [ 3, %5 ], [ 2, %12 ], [ %., %14 ]
  %17 = getelementptr inbounds i8, ptr %4, i64 4
  %18 = load i8, ptr %17, align 4
  %19 = trunc i8 %18 to i1
  %20 = select i1 %19, i8 4, i8 0
  %21 = or disjoint i8 %20, %.070
  %22 = load i32, ptr %4, align 8
  %.not = icmp eq i32 %22, 0
  %23 = select i1 %.not, i8 0, i8 8
  %24 = or disjoint i8 %21, %23
  %25 = getelementptr inbounds i8, ptr %4, i64 16
  %26 = load i32, ptr %25, align 8
  %.not73 = icmp eq i32 %26, 0
  %27 = select i1 %.not73, i8 0, i8 16
  %28 = or disjoint i8 %24, %27
  %29 = getelementptr inbounds i8, ptr %3, i64 2
  store ptr %29, ptr %6, align 8
  store i8 %28, ptr %10, align 1
  %30 = zext nneg i8 %28 to i32
  %31 = and i32 %30, 8
  %.not74 = icmp eq i32 %31, 0
  br i1 %.not74, label %36, label %32

32:                                               ; preds = %16
  %33 = load i32, ptr %4, align 8
  %34 = trunc i32 %33 to i8
  %35 = getelementptr inbounds i8, ptr %3, i64 3
  store ptr %35, ptr %6, align 8
  store i8 %34, ptr %29, align 1
  br label %36

36:                                               ; preds = %32, %16
  %37 = phi ptr [ %35, %32 ], [ %29, %16 ]
  %38 = load i8, ptr %17, align 4
  %39 = trunc i8 %38 to i1
  br i1 %39, label %40, label %50

40:                                               ; preds = %36
  %41 = getelementptr inbounds i8, ptr %4, i64 8
  %42 = load i64, ptr %41, align 8
  br label %43

43:                                               ; preds = %40, %43
  %.06579 = phi ptr [ %37, %40 ], [ %45, %43 ]
  %.06778 = phi i64 [ 0, %40 ], [ %46, %43 ]
  %.06977 = phi i64 [ %42, %40 ], [ %47, %43 ]
  %44 = trunc i64 %.06977 to i8
  %45 = getelementptr inbounds i8, ptr %.06579, i64 1
  store i8 %44, ptr %.06579, align 1
  %46 = add nuw nsw i64 %.06778, 1
  %47 = ashr i64 %.06977, 8
  %exitcond.not = icmp eq i64 %46, 8
  br i1 %exitcond.not, label %48, label %43

48:                                               ; preds = %43
  %49 = getelementptr inbounds i8, ptr %37, i64 8
  store ptr %49, ptr %6, align 8
  br label %50

50:                                               ; preds = %48, %36
  %51 = phi ptr [ %49, %48 ], [ %37, %36 ]
  %.not75 = icmp ult i8 %28, 16
  br i1 %.not75, label %56, label %52

52:                                               ; preds = %50
  %53 = load i32, ptr %25, align 8
  %54 = trunc i32 %53 to i8
  %55 = getelementptr inbounds i8, ptr %51, i64 1
  store ptr %55, ptr %6, align 8
  store i8 %54, ptr %51, align 1
  br label %56

56:                                               ; preds = %52, %50
  %57 = and i32 %30, 3
  switch i32 %57, label %default.unreachable84 [
    i32 0, label %58
    i32 1, label %62
    i32 2, label %69
    i32 3, label %82
  ]

58:                                               ; preds = %56
  %59 = trunc i64 %9 to i8
  %60 = load ptr, ptr %6, align 8
  %61 = getelementptr inbounds i8, ptr %60, i64 1
  store i8 %59, ptr %60, align 1
  br label %91

62:                                               ; preds = %56
  %63 = trunc i64 %9 to i8
  %64 = load ptr, ptr %6, align 8
  store i8 %63, ptr %64, align 1
  %65 = getelementptr inbounds i8, ptr %64, i64 1
  %66 = lshr i64 %9, 8
  %67 = trunc i64 %66 to i8
  store i8 %67, ptr %65, align 1
  %68 = getelementptr inbounds i8, ptr %64, i64 2
  br label %91

69:                                               ; preds = %56
  %70 = trunc i64 %9 to i8
  %71 = load ptr, ptr %6, align 8
  store i8 %70, ptr %71, align 1
  %72 = getelementptr inbounds i8, ptr %71, i64 1
  %73 = lshr i64 %9, 8
  %74 = trunc i64 %73 to i8
  store i8 %74, ptr %72, align 1
  %75 = getelementptr inbounds i8, ptr %71, i64 2
  store ptr %75, ptr %6, align 8
  %76 = lshr i64 %9, 16
  %77 = trunc i64 %76 to i8
  store i8 %77, ptr %75, align 1
  %78 = getelementptr inbounds i8, ptr %71, i64 3
  %79 = lshr i64 %9, 24
  %80 = trunc i64 %79 to i8
  store i8 %80, ptr %78, align 1
  %81 = getelementptr inbounds i8, ptr %71, i64 4
  br label %91

82:                                               ; preds = %56
  %83 = load ptr, ptr %6, align 8
  br label %84

84:                                               ; preds = %82, %84
  %.082 = phi ptr [ %83, %82 ], [ %86, %84 ]
  %.06281 = phi i64 [ 0, %82 ], [ %87, %84 ]
  %.06480 = phi i64 [ %9, %82 ], [ %88, %84 ]
  %85 = trunc i64 %.06480 to i8
  %86 = getelementptr inbounds i8, ptr %.082, i64 1
  store i8 %85, ptr %.082, align 1
  %87 = add nuw nsw i64 %.06281, 1
  %88 = lshr i64 %.06480, 8
  %exitcond83.not = icmp eq i64 %87, 8
  br i1 %exitcond83.not, label %89, label %84

89:                                               ; preds = %84
  %90 = getelementptr inbounds i8, ptr %83, i64 8
  br label %91

default.unreachable84:                            ; preds = %56
  unreachable

91:                                               ; preds = %89, %69, %62, %58
  %92 = phi ptr [ %90, %89 ], [ %81, %69 ], [ %68, %62 ], [ %61, %58 ]
  %93 = load ptr, ptr %7, align 8
  tail call void @llvm.memcpy.p0.p0.i64(ptr nonnull align 1 %92, ptr align 1 %93, i64 %9, i1 false)
  %94 = getelementptr inbounds i8, ptr %92, i64 %9
  store ptr %94, ptr %6, align 8
  %95 = load i32, ptr %4, align 8
  switch i32 %95, label %110 [
    i32 0, label %96
    i32 1, label %99
  ]

96:                                               ; preds = %91
  %97 = getelementptr inbounds i8, ptr %4, i64 32
  %98 = load i64, ptr %97, align 8
  call void @H5F_addr_encode(ptr noundef %0, ptr noundef nonnull %6, i64 noundef %98) #7
  br label %122

99:                                               ; preds = %91
  %100 = getelementptr inbounds i8, ptr %4, i64 32
  %101 = load ptr, ptr %100, align 8
  %102 = tail call i64 @strlen(ptr noundef nonnull dereferenceable(1) %101) #9
  %103 = and i64 %102, 65535
  %104 = trunc i64 %102 to i8
  store i8 %104, ptr %94, align 1
  %105 = getelementptr inbounds i8, ptr %94, i64 1
  %106 = lshr i64 %102, 8
  %107 = trunc i64 %106 to i8
  store i8 %107, ptr %105, align 1
  %108 = getelementptr inbounds i8, ptr %94, i64 2
  %109 = load ptr, ptr %100, align 8
  tail call void @llvm.memcpy.p0.p0.i64(ptr nonnull align 1 %108, ptr align 1 %109, i64 %103, i1 false)
  br label %122

110:                                              ; preds = %91
  %111 = getelementptr inbounds i8, ptr %4, i64 40
  %112 = load i64, ptr %111, align 8
  %113 = and i64 %112, 65535
  %114 = trunc i64 %112 to i8
  store i8 %114, ptr %94, align 1
  %115 = getelementptr inbounds i8, ptr %94, i64 1
  %116 = lshr i64 %112, 8
  %117 = trunc i64 %116 to i8
  store i8 %117, ptr %115, align 1
  %.not76 = icmp eq i64 %113, 0
  br i1 %.not76, label %122, label %118

118:                                              ; preds = %110
  %119 = getelementptr inbounds i8, ptr %94, i64 2
  %120 = getelementptr inbounds i8, ptr %4, i64 32
  %121 = load ptr, ptr %120, align 8
  tail call void @llvm.memcpy.p0.p0.i64(ptr nonnull align 1 %119, ptr align 1 %121, i64 %113, i1 false)
  br label %122

122:                                              ; preds = %110, %118, %99, %96
  ret i32 0
}